target datalayout = "e-m:e-p270:32:32-p271:32:32-p272:64:64-i64:64-i128:128-f80:128-n8:16:32:64-S128"
target triple = "x86_64-pc-linux-gnu"

%struct.hs_database = type { i32, i32, i32, i64, i32, i32, i32, i32, [16 x i32], [0 x i8] }
%struct.unaligned.0 = type { i32 }
%struct.unaligned = type { i64 }

; Function Attrs: alwaysinline nounwind uwtable
define internal i64 @unaligned_load_u64a(ptr noundef %0) #1 {
  %2 = alloca ptr, align 8
  %3 = alloca ptr, align 8
  store ptr %0, ptr %2, align 8
  call void @llvm.lifetime.start.p0(i64 8, ptr %3) #8
  %4 = load ptr, ptr %2, align 8
  store ptr %4, ptr %3, align 8
  %5 = load ptr, ptr %3, align 8
  %6 = getelementptr inbounds nuw %struct.unaligned, ptr %5, i32 0, i32 0
  %7 = load i64, ptr %6, align 1
  call void @llvm.lifetime.end.p0(i64 8, ptr %3) #8
  ret i64 %7
}

; Function Attrs: alwaysinline nounwind uwtable
define internal i32 @unaligned_load_u32(ptr noundef %0) #1 {
  %2 = alloca ptr, align 8
  %3 = alloca ptr, align 8
  store ptr %0, ptr %2, align 8
  call void @llvm.lifetime.start.p0(i64 8, ptr %3) #8
  %4 = load ptr, ptr %2, align 8
  store ptr %4, ptr %3, align 8
  %5 = load ptr, ptr %3, align 8
  %6 = getelementptr inbounds nuw %struct.unaligned.0, ptr %5, i32 0, i32 0
  %7 = load i32, ptr %6, align 1
  call void @llvm.lifetime.end.p0(i64 8, ptr %3) #8
  ret i32 %7
}

; Function Attrs: nounwind uwtable
define internal i32 @db_decode_header(ptr noundef %0, i64 noundef %1, ptr noundef %2) #0 {
  %4 = alloca i32, align 4
  %5 = alloca ptr, align 8
  %6 = alloca i64, align 8
  %7 = alloca ptr, align 8
  %8 = alloca ptr, align 8
  %9 = alloca i32, align 4
  store ptr %0, ptr %5, align 8
  store i64 %1, ptr %6, align 8
  store ptr %2, ptr %7, align 8
  %10 = load ptr, ptr %5, align 8
  %11 = load ptr, ptr %10, align 8
  %12 = icmp ne ptr %11, null
  br i1 %12, label %14, label %13

13:                                               ; preds = %3
  store i32 -1, ptr %4, align 4
  br label %85

14:                                               ; preds = %3
  %15 = load i64, ptr %6, align 8
  %16 = icmp ult i64 %15, 104
  br i1 %16, label %17, label %18

17:                                               ; preds = %14
  store i32 -1, ptr %4, align 4
  br label %85

18:                                               ; preds = %14
  call void @llvm.lifetime.start.p0(i64 8, ptr %8) #8
  %19 = load ptr, ptr %5, align 8
  %20 = load ptr, ptr %19, align 8
  store ptr %20, ptr %8, align 8
  %21 = load ptr, ptr %7, align 8
  call void @llvm.memset.p0.i64(ptr align 8 %21, i8 0, i64 104, i1 false)
  %22 = load ptr, ptr %8, align 8
  %23 = getelementptr inbounds nuw i32, ptr %22, i32 1
  store ptr %23, ptr %8, align 8
  %24 = call i32 @unaligned_load_u32(ptr noundef %22)
  %25 = load ptr, ptr %7, align 8
  %26 = getelementptr inbounds nuw %struct.hs_database, ptr %25, i32 0, i32 0
  store i32 %24, ptr %26, align 8
  %27 = load ptr, ptr %7, align 8
  %28 = getelementptr inbounds nuw %struct.hs_database, ptr %27, i32 0, i32 0
  %29 = load i32, ptr %28, align 8
  %30 = icmp ne i32 %29, -606348325
  br i1 %30, label %31, label %32

31:                                               ; preds = %18
  store i32 -1, ptr %4, align 4
  store i32 1, ptr %9, align 4
  br label %84

32:                                               ; preds = %18
  %33 = load ptr, ptr %8, align 8
  %34 = getelementptr inbounds nuw i32, ptr %33, i32 1
  store ptr %34, ptr %8, align 8
  %35 = call i32 @unaligned_load_u32(ptr noundef %33)
  %36 = load ptr, ptr %7, align 8
  %37 = getelementptr inbounds nuw %struct.hs_database, ptr %36, i32 0, i32 1
  store i32 %35, ptr %37, align 4
  %38 = load ptr, ptr %7, align 8
  %39 = getelementptr inbounds nuw %struct.hs_database, ptr %38, i32 0, i32 1
  %40 = load i32, ptr %39, align 4
  %41 = icmp ne i32 %40, 84148736
  br i1 %41, label %42, label %43

42:                                               ; preds = %32
  store i32 -5, ptr %4, align 4
  store i32 1, ptr %9, align 4
  br label %84

43:                                               ; preds = %32
  %44 = load ptr, ptr %8, align 8
  %45 = getelementptr inbounds nuw i32, ptr %44, i32 1
  store ptr %45, ptr %8, align 8
  %46 = call i32 @unaligned_load_u32(ptr noundef %44)
  %47 = load ptr, ptr %7, align 8
  %48 = getelementptr inbounds nuw %struct.hs_database, ptr %47, i32 0, i32 2
  store i32 %46, ptr %48, align 8
  %49 = load i64, ptr %6, align 8
  %50 = load ptr, ptr %7, align 8
  %51 = getelementptr inbounds nuw %struct.hs_database, ptr %50, i32 0, i32 2
  %52 = load i32, ptr %51, align 8
  %53 = zext i32 %52 to i64
  %54 = add i64 104, %53
  %55 = icmp ne i64 %49, %54
  br i1 %55, label %56, label %60

56:                                               ; preds = %43
  br label %57

57:                                               ; preds = %56
  br label %58

58:                                               ; preds = %57
  br label %59

59:                                               ; preds = %58
  store i32 -1, ptr %4, align 4
  store i32 1, ptr %9, align 4
  br label %84

60:                                               ; preds = %43
  %61 = load ptr, ptr %8, align 8
  %62 = call i64 @unaligned_load_u64a(ptr noundef %61)
  %63 = load ptr, ptr %7, align 8
  %64 = getelementptr inbounds nuw %struct.hs_database, ptr %63, i32 0, i32 3
  store i64 %62, ptr %64, align 8
  %65 = load ptr, ptr %8, align 8
  %66 = getelementptr inbounds i32, ptr %65, i64 2
  store ptr %66, ptr %8, align 8
  %67 = load ptr, ptr %8, align 8
  %68 = getelementptr inbounds nuw i32, ptr %67, i32 1
  store ptr %68, ptr %8, align 8
  %69 = call i32 @unaligned_load_u32(ptr noundef %67)
  %70 = load ptr, ptr %7, align 8
  %71 = getelementptr inbounds nuw %struct.hs_database, ptr %70, i32 0, i32 4
  store i32 %69, ptr %71, align 8
  %72 = load ptr, ptr %8, align 8
  %73 = getelementptr inbounds nuw i32, ptr %72, i32 1
  store ptr %73, ptr %8, align 8
  %74 = call i32 @unaligned_load_u32(ptr noundef %72)
  %75 = load ptr, ptr %7, align 8
  %76 = getelementptr inbounds nuw %struct.hs_database, ptr %75, i32 0, i32 5
  store i32 %74, ptr %76, align 4
  %77 = load ptr, ptr %8, align 8
  %78 = getelementptr inbounds nuw i32, ptr %77, i32 1
  store ptr %78, ptr %8, align 8
  %79 = call i32 @unaligned_load_u32(ptr noundef %77)
  %80 = load ptr, ptr %7, align 8
  %81 = getelementptr inbounds nuw %struct.hs_database, ptr %80, i32 0, i32 6
  store i32 %79, ptr %81, align 8
  %82 = load ptr, ptr %8, align 8
  %83 = load ptr, ptr %5, align 8
  store ptr %82, ptr %83, align 8
  store i32 0, ptr %4, align 4
  store i32 1, ptr %9, align 4
  br label %84

84:                                               ; preds = %60, %59, %42, %31
  call void @llvm.lifetime.end.p0(i64 8, ptr %8) #8
  br label %85

85:                                               ; preds = %84, %17, %13
  %86 = load i32, ptr %4, align 4
  ret i32 %86
}

; Function Attrs: nounwind uwtable
define dso_local i32 @hs_serialized_database_size(ptr noundef %0, i64 noundef %1, ptr noundef %2) #0 {
  %4 = alloca i32, align 4
  %5 = alloca ptr, align 8
  %6 = alloca i64, align 8
  %7 = alloca ptr, align 8
  %8 = alloca %struct.hs_database, align 8
  %9 = alloca i32, align 4
  %10 = alloca i32, align 4
  store ptr %0, ptr %5, align 8
  store i64 %1, ptr %6, align 8
  store ptr %2, ptr %7, align 8
  call void @llvm.lifetime.start.p0(i64 104, ptr %8) #8
  call void @llvm.lifetime.start.p0(i64 4, ptr %9) #8
  %11 = load i64, ptr %6, align 8
  %12 = call i32 @db_decode_header(ptr noundef %5, i64 noundef %11, ptr noundef %8)
  store i32 %12, ptr %9, align 4
  %13 = load i32, ptr %9, align 4
  %14 = icmp ne i32 %13, 0
  br i1 %14, label %15, label %17

15:                                               ; preds = %3
  %16 = load i32, ptr %9, align 4
  store i32 %16, ptr %4, align 4
  store i32 1, ptr %10, align 4
  br label %27

17:                                               ; preds = %3
  %18 = load ptr, ptr %7, align 8
  %19 = icmp ne ptr %18, null
  br i1 %19, label %21, label %20

20:                                               ; preds = %17
  store i32 -1, ptr %4, align 4
  store i32 1, ptr %10, align 4
  br label %27

21:                                               ; preds = %17
  %22 = getelementptr inbounds nuw %struct.hs_database, ptr %8, i32 0, i32 2
  %23 = load i32, ptr %22, align 8
  %24 = zext i32 %23 to i64
  %25 = add i64 104, %24
  %26 = load ptr, ptr %7, align 8
  store i64 %25, ptr %26, align 8
  store i32 0, ptr %4, align 4
  store i32 1, ptr %10, align 4
  br label %27

27:                                               ; preds = %21, %20, %15
  call void @llvm.lifetime.end.p0(i64 4, ptr %9) #8
  call void @llvm.lifetime.end.p0(i64 104, ptr %8) #8
  %28 = load i32, ptr %4, align 4
  ret i32 %28
}