; Function Attrs: mustprogress nofree norecurse nosync nounwind willreturn memory(argmem: readwrite) uwtable
define dso_local range(i32 -5, 1) i32 @hs_serialized_database_size(ptr noundef readonly %0, i64 noundef %1, ptr noundef writeonly %2) local_unnamed_addr #3 {
  %.not.i = icmp eq ptr %0, null
  %4 = icmp ult i64 %1, 104
  %or.cond.i = or i1 %.not.i, %4
  br i1 %or.cond.i, label %db_decode_header.exit.thread, label %5

5:                                                ; preds = %3
  %6 = load i32, ptr %0, align 1
  %.not27.i = icmp eq i32 %6, -606348325
  br i1 %.not27.i, label %7, label %db_decode_header.exit.thread

7:                                                ; preds = %5
  %8 = getelementptr inbounds nuw i8, ptr %0, i64 4
  %9 = load i32, ptr %8, align 1
  %.not28.i = icmp eq i32 %9, 84148736
  br i1 %.not28.i, label %10, label %db_decode_header.exit.thread

10:                                               ; preds = %7
  %11 = getelementptr inbounds nuw i8, ptr %0, i64 8
  %12 = load i32, ptr %11, align 1
  %13 = zext i32 %12 to i64
  %14 = add nuw nsw i64 %13, 104
  %.not29.i = icmp ne i64 %1, %14
  %.not7 = icmp eq ptr %2, null
  %or.cond = or i1 %.not7, %.not29.i
  br i1 %or.cond, label %db_decode_header.exit.thread, label %15

15:                                               ; preds = %10
  store i64 %1, ptr %2, align 8
  br label %db_decode_header.exit.thread

db_decode_header.exit.thread:                     ; preds = %10, %7, %5, %3, %15
  %.0 = phi i32 [ 0, %15 ], [ -1, %10 ], [ -5, %7 ], [ -1, %5 ], [ -1, %3 ]
  ret i32 %.0
}